target datalayout = "e-m:e-p270:32:32-p271:32:32-p272:64:64-i64:64-i128:128-f80:128-n8:16:32:64-S128"
target triple = "x86_64-pc-linux-gnu"

%struct.TT_CMapRec_ = type { %struct.FT_CMapRec_, ptr, i32 }
%struct.FT_CMapRec_ = type { %struct.FT_CharMapRec_, ptr }
%struct.FT_CharMapRec_ = type { ptr, i32, i16, i16 }

; Function Attrs: nounwind uwtable
define internal i32 @tt_cmap10_char_next(ptr noundef %0, ptr noundef %1) #0 {
  %3 = alloca i32, align 4
  %4 = alloca ptr, align 8
  %5 = alloca ptr, align 8
  %6 = alloca ptr, align 8
  %7 = alloca ptr, align 8
  %8 = alloca i32, align 4
  %9 = alloca i32, align 4
  %10 = alloca ptr, align 8
  %11 = alloca i32, align 4
  %12 = alloca i32, align 4
  %13 = alloca i32, align 4
  store ptr %0, ptr %4, align 8
  store ptr %1, ptr %5, align 8
  %14 = load ptr, ptr %4, align 8
  store ptr %14, ptr %6, align 8
  %15 = load ptr, ptr %6, align 8
  %16 = getelementptr inbounds %struct.TT_CMapRec_, ptr %15, i32 0, i32 1
  %17 = load ptr, ptr %16, align 8
  store ptr %17, ptr %7, align 8
  store i32 0, ptr %9, align 4
  %18 = load ptr, ptr %7, align 8
  %19 = getelementptr inbounds i8, ptr %18, i64 12
  store ptr %19, ptr %10, align 8
  %20 = load ptr, ptr %10, align 8
  %21 = getelementptr inbounds i8, ptr %20, i64 4
  store ptr %21, ptr %10, align 8
  %22 = load ptr, ptr %10, align 8
  %23 = getelementptr inbounds i8, ptr %22, i64 -4
  %24 = getelementptr inbounds i8, ptr %23, i64 0
  %25 = load i8, ptr %24, align 1
  %26 = zext i8 %25 to i32
  %27 = shl i32 %26, 24
  %28 = load ptr, ptr %10, align 8
  %29 = getelementptr inbounds i8, ptr %28, i64 -4
  %30 = getelementptr inbounds i8, ptr %29, i64 1
  %31 = load i8, ptr %30, align 1
  %32 = zext i8 %31 to i32
  %33 = shl i32 %32, 16
  %34 = or i32 %27, %33
  %35 = load ptr, ptr %10, align 8
  %36 = getelementptr inbounds i8, ptr %35, i64 -4
  %37 = getelementptr inbounds i8, ptr %36, i64 2
  %38 = load i8, ptr %37, align 1
  %39 = zext i8 %38 to i32
  %40 = shl i32 %39, 8
  %41 = or i32 %34, %40
  %42 = load ptr, ptr %10, align 8
  %43 = getelementptr inbounds i8, ptr %42, i64 -4
  %44 = getelementptr inbounds i8, ptr %43, i64 3
  %45 = load i8, ptr %44, align 1
  %46 = zext i8 %45 to i32
  %47 = shl i32 %46, 0
  %48 = or i32 %41, %47
  store i32 %48, ptr %11, align 4
  %49 = load ptr, ptr %10, align 8
  %50 = getelementptr inbounds i8, ptr %49, i64 4
  store ptr %50, ptr %10, align 8
  %51 = load ptr, ptr %10, align 8
  %52 = getelementptr inbounds i8, ptr %51, i64 -4
  %53 = getelementptr inbounds i8, ptr %52, i64 0
  %54 = load i8, ptr %53, align 1
  %55 = zext i8 %54 to i32
  %56 = shl i32 %55, 24
  %57 = load ptr, ptr %10, align 8
  %58 = getelementptr inbounds i8, ptr %57, i64 -4
  %59 = getelementptr inbounds i8, ptr %58, i64 1
  %60 = load i8, ptr %59, align 1
  %61 = zext i8 %60 to i32
  %62 = shl i32 %61, 16
  %63 = or i32 %56, %62
  %64 = load ptr, ptr %10, align 8
  %65 = getelementptr inbounds i8, ptr %64, i64 -4
  %66 = getelementptr inbounds i8, ptr %65, i64 2
  %67 = load i8, ptr %66, align 1
  %68 = zext i8 %67 to i32
  %69 = shl i32 %68, 8
  %70 = or i32 %63, %69
  %71 = load ptr, ptr %10, align 8
  %72 = getelementptr inbounds i8, ptr %71, i64 -4
  %73 = getelementptr inbounds i8, ptr %72, i64 3
  %74 = load i8, ptr %73, align 1
  %75 = zext i8 %74 to i32
  %76 = shl i32 %75, 0
  %77 = or i32 %70, %76
  store i32 %77, ptr %12, align 4
  %78 = load ptr, ptr %5, align 8
  %79 = load i32, ptr %78, align 4
  %80 = zext i32 %79 to i64
  %81 = icmp uge i64 %80, 4294967295
  br i1 %81, label %82, label %83

82:                                               ; preds = %2
  store i32 0, ptr %3, align 4
  br label %143

83:                                               ; preds = %2
  %84 = load ptr, ptr %5, align 8
  %85 = load i32, ptr %84, align 4
  %86 = add i32 %85, 1
  store i32 %86, ptr %8, align 4
  %87 = load i32, ptr %8, align 4
  %88 = load i32, ptr %11, align 4
  %89 = icmp ult i32 %87, %88
  br i1 %89, label %90, label %92

90:                                               ; preds = %83
  %91 = load i32, ptr %11, align 4
  store i32 %91, ptr %8, align 4
  br label %92

92:                                               ; preds = %90, %83
  %93 = load i32, ptr %8, align 4
  %94 = load i32, ptr %11, align 4
  %95 = sub i32 %93, %94
  store i32 %95, ptr %13, align 4
  %96 = load i32, ptr %13, align 4
  %97 = mul i32 2, %96
  %98 = load ptr, ptr %10, align 8
  %99 = zext i32 %97 to i64
  %100 = getelementptr inbounds i8, ptr %98, i64 %99
  store ptr %100, ptr %10, align 8
  br label %101

101:                                              ; preds = %136, %92
  %102 = load i32, ptr %13, align 4
  %103 = load i32, ptr %12, align 4
  %104 = icmp ult i32 %102, %103
  br i1 %104, label %105, label %139

105:                                              ; preds = %101
  %106 = load ptr, ptr %10, align 8
  %107 = getelementptr inbounds i8, ptr %106, i64 2
  store ptr %107, ptr %10, align 8
  %108 = load ptr, ptr %10, align 8
  %109 = getelementptr inbounds i8, ptr %108, i64 -2
  %110 = getelementptr inbounds i8, ptr %109, i64 0
  %111 = load i8, ptr %110, align 1
  %112 = zext i8 %111 to i16
  %113 = zext i16 %112 to i32
  %114 = shl i32 %113, 8
  %115 = load ptr, ptr %10, align 8
  %116 = getelementptr inbounds i8, ptr %115, i64 -2
  %117 = getelementptr inbounds i8, ptr %116, i64 1
  %118 = load i8, ptr %117, align 1
  %119 = zext i8 %118 to i16
  %120 = zext i16 %119 to i32
  %121 = shl i32 %120, 0
  %122 = or i32 %114, %121
  %123 = trunc i32 %122 to i16
  %124 = zext i16 %123 to i32
  store i32 %124, ptr %9, align 4
  %125 = load i32, ptr %9, align 4
  %126 = icmp ne i32 %125, 0
  br i1 %126, label %127, label %128

127:                                              ; preds = %105
  br label %139

128:                                              ; preds = %105
  %129 = load i32, ptr %8, align 4
  %130 = zext i32 %129 to i64
  %131 = icmp uge i64 %130, 4294967295
  br i1 %131, label %132, label %133

132:                                              ; preds = %128
  store i32 0, ptr %3, align 4
  br label %143

133:                                              ; preds = %128
  %134 = load i32, ptr %8, align 4
  %135 = add i32 %134, 1
  store i32 %135, ptr %8, align 4
  br label %136

136:                                              ; preds = %133
  %137 = load i32, ptr %13, align 4
  %138 = add i32 %137, 1
  store i32 %138, ptr %13, align 4
  br label %101, !llvm.loop !21

139:                                              ; preds = %127, %101
  %140 = load i32, ptr %8, align 4
  %141 = load ptr, ptr %5, align 8
  store i32 %140, ptr %141, align 4
  %142 = load i32, ptr %9, align 4
  store i32 %142, ptr %3, align 4
  br label %143

143:                                              ; preds = %139, %132, %82
  %144 = load i32, ptr %3, align 4
  ret i32 %144
}