; Function Attrs: nofree norecurse nosync nounwind memory(read, argmem: readwrite, inaccessiblemem: none) uwtable
define internal range(i32 0, 65536) i32 @tt_cmap10_char_next(ptr nocapture noundef readonly %0, ptr nocapture noundef %1) #3 {
  %3 = getelementptr inbounds i8, ptr %0, i64 24
  %4 = load ptr, ptr %3, align 8
  %5 = getelementptr inbounds i8, ptr %4, i64 16
  %6 = load i8, ptr %5, align 1
  %7 = zext i8 %6 to i32
  %8 = shl nuw i32 %7, 24
  %9 = getelementptr inbounds i8, ptr %4, i64 17
  %10 = load i8, ptr %9, align 1
  %11 = zext i8 %10 to i32
  %12 = shl nuw nsw i32 %11, 16
  %13 = or disjoint i32 %12, %8
  %14 = getelementptr inbounds i8, ptr %4, i64 18
  %15 = load i8, ptr %14, align 1
  %16 = zext i8 %15 to i32
  %17 = shl nuw nsw i32 %16, 8
  %18 = or disjoint i32 %13, %17
  %19 = getelementptr inbounds i8, ptr %4, i64 19
  %20 = load i8, ptr %19, align 1
  %21 = zext i8 %20 to i32
  %22 = or disjoint i32 %18, %21
  %23 = load i32, ptr %1, align 4
  %24 = icmp eq i32 %23, -1
  br i1 %24, label %.loopexit, label %25

25:                                               ; preds = %2
  %26 = getelementptr inbounds i8, ptr %4, i64 12
  %27 = load i8, ptr %26, align 1
  %28 = zext i8 %27 to i32
  %29 = shl nuw i32 %28, 24
  %30 = getelementptr inbounds i8, ptr %4, i64 13
  %31 = load i8, ptr %30, align 1
  %32 = zext i8 %31 to i32
  %33 = shl nuw nsw i32 %32, 16
  %34 = or disjoint i32 %33, %29
  %35 = getelementptr inbounds i8, ptr %4, i64 14
  %36 = load i8, ptr %35, align 1
  %37 = zext i8 %36 to i32
  %38 = shl nuw nsw i32 %37, 8
  %39 = or disjoint i32 %34, %38
  %40 = getelementptr inbounds i8, ptr %4, i64 15
  %41 = load i8, ptr %40, align 1
  %42 = zext i8 %41 to i32
  %43 = or disjoint i32 %39, %42
  %44 = add nuw i32 %23, 1
  %spec.select = tail call i32 @llvm.umax.i32(i32 %44, i32 %43)
  %45 = sub i32 %spec.select, %43
  %46 = icmp ult i32 %45, %22
  br i1 %46, label %.lr.ph.preheader, label %._crit_edge

.lr.ph.preheader:                                 ; preds = %25
  %47 = getelementptr inbounds i8, ptr %4, i64 20
  %48 = shl i32 %45, 1
  %49 = zext i32 %48 to i64
  %50 = getelementptr inbounds i8, ptr %47, i64 %49
  br label %.lr.ph

.lr.ph:                                           ; preds = %.lr.ph.preheader, %61
  %.046 = phi i32 [ %63, %61 ], [ %45, %.lr.ph.preheader ]
  %.145 = phi i32 [ %62, %61 ], [ %spec.select, %.lr.ph.preheader ]
  %.03644 = phi ptr [ %51, %61 ], [ %50, %.lr.ph.preheader ]
  %51 = getelementptr inbounds i8, ptr %.03644, i64 2
  %52 = load i8, ptr %.03644, align 1
  %53 = zext i8 %52 to i32
  %54 = shl nuw nsw i32 %53, 8
  %55 = getelementptr inbounds i8, ptr %.03644, i64 1
  %56 = load i8, ptr %55, align 1
  %57 = zext i8 %56 to i32
  %58 = or disjoint i32 %54, %57
  %.not = icmp eq i32 %58, 0
  br i1 %.not, label %59, label %._crit_edge

59:                                               ; preds = %.lr.ph
  %60 = icmp eq i32 %.145, -1
  br i1 %60, label %.loopexit, label %61

61:                                               ; preds = %59
  %62 = add nuw i32 %.145, 1
  %63 = add nuw i32 %.046, 1
  %64 = icmp ult i32 %63, %22
  br i1 %64, label %.lr.ph, label %._crit_edge, !llvm.loop !20

._crit_edge:                                      ; preds = %61, %.lr.ph, %25
  %.1.lcssa = phi i32 [ %spec.select, %25 ], [ %.145, %.lr.ph ], [ %62, %61 ]
  %.138 = phi i32 [ 0, %25 ], [ %58, %.lr.ph ], [ 0, %61 ]
  store i32 %.1.lcssa, ptr %1, align 4
  br label %.loopexit

.loopexit:                                        ; preds = %59, %2, %._crit_edge
  %.034 = phi i32 [ %.138, %._crit_edge ], [ 0, %2 ], [ 0, %59 ]
  ret i32 %.034
}